target datalayout = "e-m:e-p270:32:32-p271:32:32-p272:64:64-i64:64-i128:128-f80:128-n8:16:32:64-S128"
target triple = "x86_64-pc-linux-gnu"

%"class.std::__cxx11::basic_string" = type { %"struct.std::__cxx11::basic_string<char>::_Alloc_hider", i64, %union.anon }
%"struct.std::__cxx11::basic_string<char>::_Alloc_hider" = type { ptr }
%union.anon = type { i64, [8 x i8] }
%class.cmSourceFileLocation = type { ptr, i8, i8, %"class.std::__cxx11::basic_string", %"class.std::__cxx11::basic_string" }

; Function Attrs: mustprogress nounwind uwtable
define dso_local void @_ZN20cmSourceFileLocationC2Ev(ptr noundef nonnull align 8 dereferenceable(80) %0) unnamed_addr #4 align 2 {
  %2 = alloca ptr, align 8
  store ptr %0, ptr %2, align 8
  %3 = load ptr, ptr %2, align 8
  %4 = getelementptr inbounds %class.cmSourceFileLocation, ptr %3, i32 0, i32 0
  store ptr null, ptr %4, align 8
  %5 = getelementptr inbounds %class.cmSourceFileLocation, ptr %3, i32 0, i32 1
  store i8 1, ptr %5, align 8
  %6 = getelementptr inbounds %class.cmSourceFileLocation, ptr %3, i32 0, i32 2
  store i8 1, ptr %6, align 1
  %7 = getelementptr inbounds %class.cmSourceFileLocation, ptr %3, i32 0, i32 3
  call void @_ZNSt7__cxx1112basic_stringIcSt11char_traitsIcESaIcEEC1Ev(ptr noundef nonnull align 8 dereferenceable(32) %7) #3
  %8 = getelementptr inbounds %class.cmSourceFileLocation, ptr %3, i32 0, i32 4
  call void @_ZNSt7__cxx1112basic_stringIcSt11char_traitsIcESaIcEEC1Ev(ptr noundef nonnull align 8 dereferenceable(32) %8) #3
  ret void
}